target datalayout = "e-m:e-p270:32:32-p271:32:32-p272:64:64-i64:64-i128:128-f80:128-n8:16:32:64-S128"
target triple = "x86_64-unknown-linux-gnu"

@.str.80 = private unnamed_addr constant [59 x i8] c"[Half-Life 1 MDL] Unsupported number of blend animations (\00", align 1
@.str.81 = private unnamed_addr constant [2 x i8] c")\00", align 1

; Function Attrs: mustprogress uwtable
define hidden noundef zeroext i1 @_ZN6Assimp3MDL8HalfLife12HL1MDLLoader25get_num_blend_controllersEiRi(i32 noundef %num_blend_animations, ptr noundef nonnull align 4 dereferenceable(4) %num_blend_controllers) #2 align 2 {
entry:
  %retval = alloca i1, align 1
  %num_blend_animations.addr = alloca i32, align 4
  %num_blend_controllers.addr = alloca ptr, align 8
  store i32 %num_blend_animations, ptr %num_blend_animations.addr, align 4
  store ptr %num_blend_controllers, ptr %num_blend_controllers.addr, align 8
  %0 = load i32, ptr %num_blend_animations.addr, align 4
  switch i32 %0, label %sw.default [
    i32 1, label %sw.bb
    i32 2, label %sw.bb1
    i32 4, label %sw.bb2
  ]

sw.bb:                                            ; preds = %entry
  %1 = load ptr, ptr %num_blend_controllers.addr, align 8
  store i32 0, ptr %1, align 4
  store i1 true, ptr %retval, align 1
  br label %return

sw.bb1:                                           ; preds = %entry
  %2 = load ptr, ptr %num_blend_controllers.addr, align 8
  store i32 1, ptr %2, align 4
  store i1 true, ptr %retval, align 1
  br label %return

sw.bb2:                                           ; preds = %entry
  %3 = load ptr, ptr %num_blend_controllers.addr, align 8
  store i32 2, ptr %3, align 4
  store i1 true, ptr %retval, align 1
  br label %return

sw.default:                                       ; preds = %entry
  %4 = load ptr, ptr %num_blend_controllers.addr, align 8
  store i32 0, ptr %4, align 4
  %call = call noundef ptr @_ZN6Assimp13DefaultLogger3getEv()
  call void @_ZN6Assimp6Logger4warnIJRA59_KcRKiRA2_S2_EEEvDpOT_(ptr noundef nonnull align 8 dereferenceable(12) %call, ptr noundef nonnull align 1 dereferenceable(59) @.str.80, ptr noundef nonnull align 4 dereferenceable(4) %num_blend_animations.addr, ptr noundef nonnull align 1 dereferenceable(2) @.str.81)
  store i1 false, ptr %retval, align 1
  br label %return

return:                                           ; preds = %sw.default, %sw.bb2, %sw.bb1, %sw.bb
  %5 = load i1, ptr %retval, align 1
  ret i1 %5
}