; Function Attrs: mustprogress uwtable
define hidden noundef zeroext i1 @_ZN6Assimp3MDL8HalfLife12HL1MDLLoader25get_num_blend_controllersEiRi(i32 noundef %num_blend_animations, ptr nocapture noundef nonnull writeonly align 4 dereferenceable(4) %num_blend_controllers) local_unnamed_addr #1 align 2 {
entry:
  %num_blend_animations.addr = alloca i32, align 4
  store i32 %num_blend_animations, ptr %num_blend_animations.addr, align 4
  switch i32 %num_blend_animations, label %sw.default [
    i32 1, label %sw.bb
    i32 2, label %sw.bb1
    i32 4, label %sw.bb2
  ]

sw.bb:                                            ; preds = %entry
  store i32 0, ptr %num_blend_controllers, align 4
  br label %return

sw.bb1:                                           ; preds = %entry
  store i32 1, ptr %num_blend_controllers, align 4
  br label %return

sw.bb2:                                           ; preds = %entry
  store i32 2, ptr %num_blend_controllers, align 4
  br label %return

sw.default:                                       ; preds = %entry
  store i32 0, ptr %num_blend_controllers, align 4
  %call = tail call noundef ptr @_ZN6Assimp13DefaultLogger3getEv()
  call void @_ZN6Assimp6Logger4warnIJRA59_KcRKiRA2_S2_EEEvDpOT_(ptr noundef nonnull align 8 dereferenceable(12) %call, ptr noundef nonnull align 1 dereferenceable(59) @.str.80, ptr noundef nonnull align 4 dereferenceable(4) %num_blend_animations.addr, ptr noundef nonnull align 1 dereferenceable(2) @.str.81)
  br label %return

return:                                           ; preds = %sw.default, %sw.bb2, %sw.bb1, %sw.bb
  %retval.0 = phi i1 [ false, %sw.default ], [ true, %sw.bb2 ], [ true, %sw.bb1 ], [ true, %sw.bb ]
  ret i1 %retval.0
}